(dp0
S'id'
p1
(dp2
S'rname'
p3
S'"id"'
p4
sS'sortable'
p5
I1
sS'raw_rname'
p6
S'id'
p7
sS'notnull'
p8
I00
sS'length'
p9
I512
sS'sql'
p10
S'INTEGER PRIMARY KEY AUTOINCREMENT'
p11
sS'unique'
p12
I00
sS'type'
p13
g7
ss.